; ModuleID = '9/548.c'
source_filename = "9/548.c"
target datalayout = "e-m:e-p270:32:32-p271:32:32-p272:64:64-i64:64-f80:128-n8:16:32:64-S128"
target triple = "x86_64-pc-linux-gnu"

@s = dso_local global [100 x i32] zeroinitializer, align 16
@t = dso_local global [100 x i32] zeroinitializer, align 16
@m = dso_local global i32 0, align 4
@.str = private unnamed_addr constant [3 x i8] c"%d\00", align 1
@n = common dso_local global i32 0, align 4
@i = common dso_local global i32 0, align 4
@.str.1 = private unnamed_addr constant [6 x i8] c"%s %d\00", align 1
@ss = common dso_local global [100 x [100 x i8]] zeroinitializer, align 16
@j = common dso_local global i32 0, align 4
@.str.2 = private unnamed_addr constant [4 x i8] c"%s\0A\00", align 1

; Function Attrs: noinline nounwind uwtable
define dso_local i32 @cmp(i8* %0, i8* %1) #0 {
  %3 = alloca i8*, align 8
  %4 = alloca i8*, align 8
  store i8* %0, i8** %3, align 8
  store i8* %1, i8** %4, align 8
  %5 = load i8*, i8** %4, align 8
  %6 = bitcast i8* %5 to i32*
  %7 = load i32, i32* %6, align 4
  %8 = load i8*, i8** %3, align 8
  %9 = bitcast i8* %8 to i32*
  %10 = load i32, i32* %9, align 4
  %11 = sub nsw i32 %7, %10
  ret i32 %11
}

; Function Attrs: noinline nounwind uwtable
define dso_local i32 @main() #0 {
  %1 = alloca i32, align 4
  store i32 0, i32* %1, align 4
  %2 = call i32 (i8*, ...) @__isoc99_scanf(i8* getelementptr inbounds ([3 x i8], [3 x i8]* @.str, i64 0, i64 0), i32* @n)
  store i32 0, i32* @i, align 4
  br label %3

3:                                                ; preds = %16, %0
  %4 = load i32, i32* @i, align 4
  %5 = load i32, i32* @n, align 4
  %6 = icmp slt i32 %4, %5
  br i1 %6, label %7, label %19

7:                                                ; preds = %3
  %8 = load i32, i32* @i, align 4
  %9 = sext i32 %8 to i64
  %10 = getelementptr inbounds [100 x [100 x i8]], [100 x [100 x i8]]* @ss, i64 0, i64 %9
  %11 = getelementptr inbounds [100 x i8], [100 x i8]* %10, i64 0, i64 0
  %12 = load i32, i32* @i, align 4
  %13 = sext i32 %12 to i64
  %14 = getelementptr inbounds [100 x i32], [100 x i32]* @s, i64 0, i64 %13
  %15 = call i32 (i8*, ...) @__isoc99_scanf(i8* getelementptr inbounds ([6 x i8], [6 x i8]* @.str.1, i64 0, i64 0), i8* %11, i32* %14)
  br label %16

16:                                               ; preds = %7
  %17 = load i32, i32* @i, align 4
  %18 = add nsw i32 %17, 1
  store i32 %18, i32* @i, align 4
  br label %3

19:                                               ; preds = %3
  store i32 0, i32* @j, align 4
  br label %20

20:                                               ; preds = %78, %19
  %21 = load i32, i32* @j, align 4
  %22 = load i32, i32* @n, align 4
  %23 = icmp slt i32 %21, %22
  br i1 %23, label %24, label %81

24:                                               ; preds = %20
  store i32 0, i32* @m, align 4
  store i32 0, i32* @i, align 4
  br label %25

25:                                               ; preds = %45, %24
  %26 = load i32, i32* @i, align 4
  %27 = load i32, i32* @n, align 4
  %28 = icmp slt i32 %26, %27
  br i1 %28, label %29, label %48

29:                                               ; preds = %25
  %30 = load i32, i32* @m, align 4
  %31 = load i32, i32* @i, align 4
  %32 = sext i32 %31 to i64
  %33 = getelementptr inbounds [100 x i32], [100 x i32]* @s, i64 0, i64 %32
  %34 = load i32, i32* %33, align 4
  %35 = icmp sgt i32 %30, %34
  br i1 %35, label %36, label %38

36:                                               ; preds = %29
  %37 = load i32, i32* @m, align 4
  br label %43

38:                                               ; preds = %29
  %39 = load i32, i32* @i, align 4
  %40 = sext i32 %39 to i64
  %41 = getelementptr inbounds [100 x i32], [100 x i32]* @s, i64 0, i64 %40
  %42 = load i32, i32* %41, align 4
  br label %43

43:                                               ; preds = %38, %36
  %44 = phi i32 [ %37, %36 ], [ %42, %38 ]
  store i32 %44, i32* @m, align 4
  br label %45

45:                                               ; preds = %43
  %46 = load i32, i32* @i, align 4
  %47 = add nsw i32 %46, 1
  store i32 %47, i32* @i, align 4
  br label %25

48:                                               ; preds = %25
  %49 = load i32, i32* @m, align 4
  %50 = icmp slt i32 %49, 60
  br i1 %50, label %51, label %52

51:                                               ; preds = %48
  br label %81

52:                                               ; preds = %48
  store i32 0, i32* @i, align 4
  br label %53

53:                                               ; preds = %74, %52
  %54 = load i32, i32* @i, align 4
  %55 = load i32, i32* @n, align 4
  %56 = icmp slt i32 %54, %55
  br i1 %56, label %57, label %77

57:                                               ; preds = %53
  %58 = load i32, i32* @i, align 4
  %59 = sext i32 %58 to i64
  %60 = getelementptr inbounds [100 x i32], [100 x i32]* @s, i64 0, i64 %59
  %61 = load i32, i32* %60, align 4
  %62 = load i32, i32* @m, align 4
  %63 = icmp eq i32 %61, %62
  br i1 %63, label %64, label %73

64:                                               ; preds = %57
  %65 = load i32, i32* @i, align 4
  %66 = sext i32 %65 to i64
  %67 = getelementptr inbounds [100 x [100 x i8]], [100 x [100 x i8]]* @ss, i64 0, i64 %66
  %68 = getelementptr inbounds [100 x i8], [100 x i8]* %67, i64 0, i64 0
  %69 = call i32 (i8*, ...) @printf(i8* getelementptr inbounds ([4 x i8], [4 x i8]* @.str.2, i64 0, i64 0), i8* %68)
  %70 = load i32, i32* @i, align 4
  %71 = sext i32 %70 to i64
  %72 = getelementptr inbounds [100 x i32], [100 x i32]* @s, i64 0, i64 %71
  store i32 -1, i32* %72, align 4
  br label %73

73:                                               ; preds = %64, %57
  br label %74

74:                                               ; preds = %73
  %75 = load i32, i32* @i, align 4
  %76 = add nsw i32 %75, 1
  store i32 %76, i32* @i, align 4
  br label %53

77:                                               ; preds = %53
  br label %78

78:                                               ; preds = %77
  %79 = load i32, i32* @j, align 4
  %80 = add nsw i32 %79, 1
  store i32 %80, i32* @j, align 4
  br label %20

81:                                               ; preds = %51, %20
  store i32 0, i32* @i, align 4
  br label %82

82:                                               ; preds = %99, %81
  %83 = load i32, i32* @i, align 4
  %84 = load i32, i32* @n, align 4
  %85 = icmp slt i32 %83, %84
  br i1 %85, label %86, label %102

86:                                               ; preds = %82
  %87 = load i32, i32* @i, align 4
  %88 = sext i32 %87 to i64
  %89 = getelementptr inbounds [100 x i32], [100 x i32]* @s, i64 0, i64 %88
  %90 = load i32, i32* %89, align 4
  %91 = icmp ne i32 %90, -1
  br i1 %91, label %92, label %98

92:                                               ; preds = %86
  %93 = load i32, i32* @i, align 4
  %94 = sext i32 %93 to i64
  %95 = getelementptr inbounds [100 x [100 x i8]], [100 x [100 x i8]]* @ss, i64 0, i64 %94
  %96 = getelementptr inbounds [100 x i8], [100 x i8]* %95, i64 0, i64 0
  %97 = call i32 (i8*, ...) @printf(i8* getelementptr inbounds ([4 x i8], [4 x i8]* @.str.2, i64 0, i64 0), i8* %96)
  br label %98

98:                                               ; preds = %92, %86
  br label %99

99:                                               ; preds = %98
  %100 = load i32, i32* @i, align 4
  %101 = add nsw i32 %100, 1
  store i32 %101, i32* @i, align 4
  br label %82

102:                                              ; preds = %82
  %103 = load i32, i32* %1, align 4
  ret i32 %103
}

declare dso_local i32 @__isoc99_scanf(i8*, ...) #1

declare dso_local i32 @printf(i8*, ...) #1


!llvm.module.flags = !{!0}
!llvm.ident = !{!1}

!0 = !{i32 1, !"wchar_size", i32 4}
!1 = !{!"clang version 10.0.0-4ubuntu1 "}
